target datalayout = "e-m:e-p270:32:32-p271:32:32-p272:64:64-i64:64-i128:128-f80:128-n8:16:32:64-S128"
target triple = "x86_64-pc-linux-gnu"

%struct.pxr_nc_1_0_Yxy = type { float, float, float }

; Function Attrs: nounwind uwtable
define { <2 x float>, float } @NcNormalizeYxy(<2 x float> %0, float %1) #6 {
  %3 = alloca %struct.pxr_nc_1_0_Yxy, align 4
  %4 = alloca %struct.pxr_nc_1_0_Yxy, align 4
  %5 = alloca { <2 x float>, float }, align 4
  %6 = alloca { <2 x float>, float }, align 8
  %7 = getelementptr inbounds nuw { <2 x float>, float }, ptr %5, i32 0, i32 0
  store <2 x float> %0, ptr %7, align 4
  %8 = getelementptr inbounds nuw { <2 x float>, float }, ptr %5, i32 0, i32 1
  store float %1, ptr %8, align 4
  call void @llvm.memcpy.p0.p0.i64(ptr align 4 %4, ptr align 4 %5, i64 12, i1 false)
  %9 = getelementptr inbounds nuw %struct.pxr_nc_1_0_Yxy, ptr %3, i32 0, i32 0
  %10 = getelementptr inbounds nuw %struct.pxr_nc_1_0_Yxy, ptr %4, i32 0, i32 0
  %11 = load float, ptr %10, align 4
  store float %11, ptr %9, align 4
  %12 = getelementptr inbounds nuw %struct.pxr_nc_1_0_Yxy, ptr %3, i32 0, i32 1
  %13 = getelementptr inbounds nuw %struct.pxr_nc_1_0_Yxy, ptr %4, i32 0, i32 0
  %14 = load float, ptr %13, align 4
  %15 = getelementptr inbounds nuw %struct.pxr_nc_1_0_Yxy, ptr %4, i32 0, i32 1
  %16 = load float, ptr %15, align 4
  %17 = fmul float %14, %16
  %18 = getelementptr inbounds nuw %struct.pxr_nc_1_0_Yxy, ptr %4, i32 0, i32 2
  %19 = load float, ptr %18, align 4
  %20 = fdiv float %17, %19
  store float %20, ptr %12, align 4
  %21 = getelementptr inbounds nuw %struct.pxr_nc_1_0_Yxy, ptr %3, i32 0, i32 2
  %22 = getelementptr inbounds nuw %struct.pxr_nc_1_0_Yxy, ptr %4, i32 0, i32 0
  %23 = load float, ptr %22, align 4
  %24 = getelementptr inbounds nuw %struct.pxr_nc_1_0_Yxy, ptr %4, i32 0, i32 1
  %25 = load float, ptr %24, align 4
  %26 = fsub float 1.000000e+00, %25
  %27 = getelementptr inbounds nuw %struct.pxr_nc_1_0_Yxy, ptr %4, i32 0, i32 2
  %28 = load float, ptr %27, align 4
  %29 = fsub float %26, %28
  %30 = fmul float %23, %29
  %31 = getelementptr inbounds nuw %struct.pxr_nc_1_0_Yxy, ptr %4, i32 0, i32 2
  %32 = load float, ptr %31, align 4
  %33 = fdiv float %30, %32
  store float %33, ptr %21, align 4
  call void @llvm.memcpy.p0.p0.i64(ptr align 8 %6, ptr align 4 %3, i64 12, i1 false)
  %34 = load { <2 x float>, float }, ptr %6, align 8
  ret { <2 x float>, float } %34
}